target datalayout = "e-m:e-p270:32:32-p271:32:32-p272:64:64-i64:64-i128:128-f80:128-n8:16:32:64-S128"
target triple = "x86_64-pc-linux-gnu"

%"class.std::__cxx11::basic_string" = type { %"struct.std::__cxx11::basic_string<char>::_Alloc_hider", i64, %union.anon }
%"struct.std::__cxx11::basic_string<char>::_Alloc_hider" = type { ptr }
%union.anon = type { i64, [8 x i8] }
%"class.duckdb::optional_ptr.96" = type { ptr }
%"class.duckdb::optional_ptr.97" = type { ptr }
%"struct.duckdb::CatalogTransaction" = type { %"class.duckdb::optional_ptr.96", %"class.duckdb::optional_ptr.97", %"class.duckdb::optional_ptr.480", i64, i64 }
%"class.duckdb::optional_ptr.480" = type { ptr }
%"class.duckdb::optional_ptr.594" = type { ptr }
%"class.duckdb::vector.660" = type { %"class.std::vector.661" }
%"class.std::vector.661" = type { %"struct.std::_Vector_base.662" }
%"struct.std::_Vector_base.662" = type { %"struct.std::_Vector_base<duckdb::SecretEntry, std::allocator<duckdb::SecretEntry>>::_Vector_impl" }
%"struct.std::_Vector_base<duckdb::SecretEntry, std::allocator<duckdb::SecretEntry>>::_Vector_impl" = type { %"struct.std::_Vector_base<duckdb::SecretEntry, std::allocator<duckdb::SecretEntry>>::_Vector_impl_data" }
%"struct.std::_Vector_base<duckdb::SecretEntry, std::allocator<duckdb::SecretEntry>>::_Vector_impl_data" = type { ptr, ptr, ptr }
%"class.duckdb::CatalogSetSecretStorage" = type { %"class.duckdb::SecretStorage.base", %"class.duckdb::unique_ptr.714", ptr }
%"class.duckdb::SecretStorage.base" = type <{ ptr, %"class.std::__cxx11::basic_string", i64, i8 }>
%"class.duckdb::unique_ptr.714" = type { %"class.std::unique_ptr.715" }
%"class.std::unique_ptr.715" = type { %"struct.std::__uniq_ptr_data.716" }
%"struct.std::__uniq_ptr_data.716" = type { %"class.std::__uniq_ptr_impl.717" }
%"class.std::__uniq_ptr_impl.717" = type { %"class.std::tuple.718" }
%"class.std::tuple.718" = type { %"struct.std::_Tuple_impl.719" }
%"struct.std::_Tuple_impl.719" = type { %"struct.std::_Head_base.722" }
%"struct.std::_Head_base.722" = type { ptr }
%"class.std::function.737" = type { %"class.std::_Function_base", ptr }
%"class.std::_Function_base" = type { %"union.std::_Any_data", ptr }
%"union.std::_Any_data" = type { %"union.std::_Nocopy_types" }
%"union.std::_Nocopy_types" = type { { i64, i64 } }
%class.anon.739 = type { ptr }

; Function Attrs: mustprogress nounwind uwtable
define linkonce_odr void @_ZNSt15__new_allocatorIN6duckdb11SecretEntryEEC2Ev(ptr noundef nonnull align 1 dereferenceable(1) %0) unnamed_addr #6 comdat align 2 {
  %2 = alloca ptr, align 8
  store ptr %0, ptr %2, align 8, !tbaa !1270
  ret void
}

; Function Attrs: mustprogress nounwind uwtable
define linkonce_odr void @_ZNSt12_Vector_baseIN6duckdb11SecretEntryESaIS1_EE17_Vector_impl_dataC2Ev(ptr noundef nonnull align 8 dereferenceable(24) %0) unnamed_addr #6 comdat align 2 {
  %2 = alloca ptr, align 8
  store ptr %0, ptr %2, align 8, !tbaa !1268
  %3 = load ptr, ptr %2, align 8
  %4 = getelementptr inbounds nuw %"struct.std::_Vector_base<duckdb::SecretEntry, std::allocator<duckdb::SecretEntry>>::_Vector_impl_data", ptr %3, i32 0, i32 0
  store ptr null, ptr %4, align 8, !tbaa !466
  %5 = getelementptr inbounds nuw %"struct.std::_Vector_base<duckdb::SecretEntry, std::allocator<duckdb::SecretEntry>>::_Vector_impl_data", ptr %3, i32 0, i32 1
  store ptr null, ptr %5, align 8, !tbaa !463
  %6 = getelementptr inbounds nuw %"struct.std::_Vector_base<duckdb::SecretEntry, std::allocator<duckdb::SecretEntry>>::_Vector_impl_data", ptr %3, i32 0, i32 2
  store ptr null, ptr %6, align 8, !tbaa !465
  ret void
}

; Function Attrs: mustprogress nounwind uwtable
define linkonce_odr void @_ZNSaIN6duckdb11SecretEntryEEC2Ev(ptr noundef nonnull align 1 dereferenceable(1) %0) unnamed_addr #6 comdat align 2 {
  %2 = alloca ptr, align 8
  store ptr %0, ptr %2, align 8, !tbaa !1266
  %3 = load ptr, ptr %2, align 8
  call void @_ZNSt15__new_allocatorIN6duckdb11SecretEntryEEC2Ev(ptr noundef nonnull align 1 dereferenceable(1) %3) #3
  ret void
}

; Function Attrs: mustprogress nounwind uwtable
define linkonce_odr noundef ptr @_ZNSt9_Any_data9_M_accessEv(ptr noundef nonnull align 8 dereferenceable(16) %0) #6 comdat align 2 {
  %2 = alloca ptr, align 8
  store ptr %0, ptr %2, align 8, !tbaa !2350
  %3 = load ptr, ptr %2, align 8
  %4 = getelementptr inbounds [16 x i8], ptr %3, i64 0, i64 0
  ret ptr %4
}

; Function Attrs: mustprogress nounwind uwtable
define linkonce_odr void @_ZNSt12_Vector_baseIN6duckdb11SecretEntryESaIS1_EE12_Vector_implC2Ev(ptr noundef nonnull align 8 dereferenceable(24) %0) unnamed_addr #6 comdat align 2 {
  %2 = alloca ptr, align 8
  store ptr %0, ptr %2, align 8, !tbaa !1264
  %3 = load ptr, ptr %2, align 8
  call void @_ZNSaIN6duckdb11SecretEntryEEC2Ev(ptr noundef nonnull align 1 dereferenceable(1) %3) #3
  call void @_ZNSt12_Vector_baseIN6duckdb11SecretEntryESaIS1_EE17_Vector_impl_dataC2Ev(ptr noundef nonnull align 8 dereferenceable(24) %3) #3
  ret void
}

; Function Attrs: mustprogress nounwind uwtable
define internal void @"_ZNSt14_Function_base13_Base_managerIZN6duckdb23CatalogSetSecretStorage10AllSecretsENS1_12optional_ptrINS1_18CatalogTransactionELb1EEEE3$_0E9_M_createIS6_EEvRSt9_Any_dataOT_St17integral_constantIbLb1EE"(ptr noundef nonnull align 8 dereferenceable(16) %0, ptr noundef nonnull align 8 dereferenceable(8) %1) #6 align 2 {
  %3 = alloca ptr, align 8
  %4 = alloca ptr, align 8
  store ptr %0, ptr %3, align 8, !tbaa !2350
  store ptr %1, ptr %4, align 8, !tbaa !800
  %5 = load ptr, ptr %3, align 8, !tbaa !2350
  %6 = call noundef ptr @_ZNSt9_Any_data9_M_accessEv(ptr noundef nonnull align 8 dereferenceable(16) %5) #3
  %7 = load ptr, ptr %4, align 8, !tbaa !800
  call void @llvm.memcpy.p0.p0.i64(ptr align 8 %6, ptr align 8 %7, i64 8, i1 false), !tbaa.struct !2354
  ret void
}

; Function Attrs: mustprogress nounwind uwtable
define linkonce_odr void @_ZNSt12_Vector_baseIN6duckdb11SecretEntryESaIS1_EEC2Ev(ptr noundef nonnull align 8 dereferenceable(24) %0) unnamed_addr #6 comdat align 2 {
  %2 = alloca ptr, align 8
  store ptr %0, ptr %2, align 8, !tbaa !1262
  %3 = load ptr, ptr %2, align 8
  %4 = getelementptr inbounds nuw %"struct.std::_Vector_base.662", ptr %3, i32 0, i32 0
  call void @_ZNSt12_Vector_baseIN6duckdb11SecretEntryESaIS1_EE12_Vector_implC2Ev(ptr noundef nonnull align 8 dereferenceable(24) %4) #3
  ret void
}

; Function Attrs: mustprogress uwtable
define linkonce_odr noundef nonnull align 8 dereferenceable(40) ptr @_ZN6duckdb12optional_ptrINS_18CatalogTransactionELb1EEdeEv(ptr noundef nonnull align 8 dereferenceable(8) %0) #4 comdat align 2 {
  %2 = alloca ptr, align 8
  store ptr %0, ptr %2, align 8, !tbaa !340
  %3 = load ptr, ptr %2, align 8
  call void @_ZNK6duckdb12optional_ptrINS_18CatalogTransactionELb1EE10CheckValidEv(ptr noundef nonnull align 8 dereferenceable(8) %3)
  %4 = getelementptr inbounds nuw %"class.duckdb::optional_ptr.594", ptr %3, i32 0, i32 0
  %5 = load ptr, ptr %4, align 8, !tbaa !344
  ret ptr %5
}

; Function Attrs: mustprogress nounwind uwtable
define linkonce_odr noundef zeroext i1 @_ZNK6duckdb12optional_ptrINS_18CatalogTransactionELb1EEcvbEv(ptr noundef nonnull align 8 dereferenceable(8) %0) #6 comdat align 2 {
  %2 = alloca ptr, align 8
  store ptr %0, ptr %2, align 8, !tbaa !340
  %3 = load ptr, ptr %2, align 8
  %4 = getelementptr inbounds nuw %"class.duckdb::optional_ptr.594", ptr %3, i32 0, i32 0
  %5 = load ptr, ptr %4, align 8, !tbaa !344
  %6 = icmp ne ptr %5, null
  ret i1 %6
}

; Function Attrs: mustprogress nounwind uwtable
define internal void @"_ZNSt14_Function_base13_Base_managerIZN6duckdb23CatalogSetSecretStorage10AllSecretsENS1_12optional_ptrINS1_18CatalogTransactionELb1EEEE3$_0E15_M_init_functorIS6_EEvRSt9_Any_dataOT_"(ptr noundef nonnull align 8 dereferenceable(16) %0, ptr noundef nonnull align 8 dereferenceable(8) %1) #6 align 2 personality ptr @__gxx_personality_v0 {
  %3 = alloca ptr, align 8
  %4 = alloca ptr, align 8
  store ptr %0, ptr %3, align 8, !tbaa !2350
  store ptr %1, ptr %4, align 8, !tbaa !800
  %5 = load ptr, ptr %3, align 8, !tbaa !2350
  %6 = load ptr, ptr %4, align 8, !tbaa !800
  invoke void @"_ZNSt14_Function_base13_Base_managerIZN6duckdb23CatalogSetSecretStorage10AllSecretsENS1_12optional_ptrINS1_18CatalogTransactionELb1EEEE3$_0E9_M_createIS6_EEvRSt9_Any_dataOT_St17integral_constantIbLb1EE"(ptr noundef nonnull align 8 dereferenceable(16) %5, ptr noundef nonnull align 8 dereferenceable(8) %6)
          to label %7 unwind label %8

7:                                                ; preds = %2
  ret void

8:                                                ; preds = %2
  %9 = landingpad { ptr, i32 }
          catch ptr null
  %10 = extractvalue { ptr, i32 } %9, 0
  call void @__clang_call_terminate(ptr %10) #25
  unreachable
}

; Function Attrs: mustprogress nounwind uwtable
define internal noundef zeroext i1 @"_ZNSt14_Function_base13_Base_managerIZN6duckdb23CatalogSetSecretStorage10AllSecretsENS1_12optional_ptrINS1_18CatalogTransactionELb1EEEE3$_0E21_M_not_empty_functionIS6_EEbRKT_"(ptr noundef nonnull align 8 dereferenceable(8) %0) #6 align 2 {
  %2 = alloca ptr, align 8
  store ptr %0, ptr %2, align 8, !tbaa !800
  ret i1 true
}

; Function Attrs: mustprogress nounwind uwtable
define linkonce_odr void @_ZNSt14_Function_baseC2Ev(ptr noundef nonnull align 8 dereferenceable(24) %0) unnamed_addr #6 comdat align 2 {
  %2 = alloca ptr, align 8
  store ptr %0, ptr %2, align 8, !tbaa !813
  %3 = load ptr, ptr %2, align 8
  %4 = getelementptr inbounds nuw %"class.std::_Function_base", ptr %3, i32 0, i32 0
  store ptr null, ptr %4, align 8, !tbaa !56
  %5 = getelementptr inbounds nuw %"class.std::_Function_base", ptr %3, i32 0, i32 1
  store ptr null, ptr %5, align 8, !tbaa !804
  ret void
}

; Function Attrs: mustprogress nounwind uwtable
define linkonce_odr void @_ZNSt6vectorIN6duckdb11SecretEntryESaIS1_EEC2Ev(ptr noundef nonnull align 8 dereferenceable(24) %0) unnamed_addr #6 comdat align 2 {
  %2 = alloca ptr, align 8
  store ptr %0, ptr %2, align 8, !tbaa !457
  %3 = load ptr, ptr %2, align 8
  call void @_ZNSt12_Vector_baseIN6duckdb11SecretEntryESaIS1_EEC2Ev(ptr noundef nonnull align 8 dereferenceable(24) %3) #3
  ret void
}

; Function Attrs: mustprogress nounwind uwtable
define linkonce_odr void @_ZNSt14_Function_baseD2Ev(ptr noundef nonnull align 8 dereferenceable(24) %0) unnamed_addr #6 comdat align 2 personality ptr @__gxx_personality_v0 {
  %2 = alloca ptr, align 8
  store ptr %0, ptr %2, align 8, !tbaa !813
  %3 = load ptr, ptr %2, align 8
  %4 = getelementptr inbounds nuw %"class.std::_Function_base", ptr %3, i32 0, i32 1
  %5 = load ptr, ptr %4, align 8, !tbaa !804
  %6 = icmp ne ptr %5, null
  br i1 %6, label %7, label %14

7:                                                ; preds = %1
  %8 = getelementptr inbounds nuw %"class.std::_Function_base", ptr %3, i32 0, i32 1
  %9 = load ptr, ptr %8, align 8, !tbaa !804
  %10 = getelementptr inbounds nuw %"class.std::_Function_base", ptr %3, i32 0, i32 0
  %11 = getelementptr inbounds nuw %"class.std::_Function_base", ptr %3, i32 0, i32 0
  %12 = invoke noundef zeroext i1 %9(ptr noundef nonnull align 8 dereferenceable(16) %10, ptr noundef nonnull align 8 dereferenceable(16) %11, i32 noundef 3)
          to label %13 unwind label %15

13:                                               ; preds = %7
  br label %14

14:                                               ; preds = %13, %1
  ret void

15:                                               ; preds = %7
  %16 = landingpad { ptr, i32 }
          catch ptr null
  %17 = extractvalue { ptr, i32 } %16, 0
  call void @__clang_call_terminate(ptr %17) #25
  unreachable
}

; Function Attrs: mustprogress uwtable
define void @_ZN6duckdb23CatalogSetSecretStorage23GetTransactionOrDefaultENS_12optional_ptrINS_18CatalogTransactionELb1EEE(ptr dead_on_unwind noalias writable sret(%"struct.duckdb::CatalogTransaction") align 8 %0, ptr noundef nonnull align 8 dereferenceable(72) %1, ptr %2) #4 align 2 {
  %4 = alloca %"class.duckdb::optional_ptr.594", align 8
  %5 = alloca ptr, align 8
  %6 = getelementptr inbounds nuw %"class.duckdb::optional_ptr.594", ptr %4, i32 0, i32 0
  store ptr %2, ptr %6, align 8
  store ptr %1, ptr %5, align 8, !tbaa !772
  %7 = load ptr, ptr %5, align 8
  %8 = call noundef zeroext i1 @_ZNK6duckdb12optional_ptrINS_18CatalogTransactionELb1EEcvbEv(ptr noundef nonnull align 8 dereferenceable(8) %4)
  br i1 %8, label %9, label %11

9:                                                ; preds = %3
  %10 = call noundef nonnull align 8 dereferenceable(40) ptr @_ZN6duckdb12optional_ptrINS_18CatalogTransactionELb1EEdeEv(ptr noundef nonnull align 8 dereferenceable(8) %4)
  call void @llvm.memcpy.p0.p0.i64(ptr align 8 %0, ptr align 8 %10, i64 40, i1 false), !tbaa.struct !126
  br label %14

11:                                               ; preds = %3
  %12 = getelementptr inbounds nuw %"class.duckdb::CatalogSetSecretStorage", ptr %7, i32 0, i32 2
  %13 = load ptr, ptr %12, align 8, !tbaa !775
  call void @_ZN6duckdb18CatalogTransaction20GetSystemTransactionERNS_16DatabaseInstanceE(ptr dead_on_unwind writable sret(%"struct.duckdb::CatalogTransaction") align 8 %0, ptr noundef nonnull align 8 dereferenceable(1912) %13)
  br label %14

14:                                               ; preds = %11, %9
  ret void
}

; Function Attrs: mustprogress nounwind uwtable
define internal void @"_ZNSt8functionIFvRN6duckdb12CatalogEntryEEEC2IZNS0_23CatalogSetSecretStorage10AllSecretsENS0_12optional_ptrINS0_18CatalogTransactionELb1EEEE3$_0vEEOT_"(ptr noundef nonnull align 8 dereferenceable(32) %0, ptr noundef nonnull align 8 dereferenceable(8) %1) unnamed_addr #6 align 2 {
  %3 = alloca ptr, align 8
  %4 = alloca ptr, align 8
  store ptr %0, ptr %3, align 8, !tbaa !798
  store ptr %1, ptr %4, align 8, !tbaa !800
  %5 = load ptr, ptr %3, align 8
  %6 = getelementptr inbounds i8, ptr %5, i64 0
  call void @llvm.memset.p0.i64(ptr align 8 %6, i8 0, i64 24, i1 false)
  call void @_ZNSt14_Function_baseC2Ev(ptr noundef nonnull align 8 dereferenceable(24) %5) #3
  %7 = getelementptr inbounds nuw %"class.std::function.737", ptr %5, i32 0, i32 1
  store ptr null, ptr %7, align 8, !tbaa !801
  %8 = load ptr, ptr %4, align 8, !tbaa !800
  %9 = call noundef zeroext i1 @"_ZNSt14_Function_base13_Base_managerIZN6duckdb23CatalogSetSecretStorage10AllSecretsENS1_12optional_ptrINS1_18CatalogTransactionELb1EEEE3$_0E21_M_not_empty_functionIS6_EEbRKT_"(ptr noundef nonnull align 8 dereferenceable(8) %8) #3
  br i1 %9, label %10, label %15

10:                                               ; preds = %2
  %11 = getelementptr inbounds nuw %"class.std::_Function_base", ptr %5, i32 0, i32 0
  %12 = load ptr, ptr %4, align 8, !tbaa !800
  call void @"_ZNSt14_Function_base13_Base_managerIZN6duckdb23CatalogSetSecretStorage10AllSecretsENS1_12optional_ptrINS1_18CatalogTransactionELb1EEEE3$_0E15_M_init_functorIS6_EEvRSt9_Any_dataOT_"(ptr noundef nonnull align 8 dereferenceable(16) %11, ptr noundef nonnull align 8 dereferenceable(8) %12) #3
  %13 = getelementptr inbounds nuw %"class.std::function.737", ptr %5, i32 0, i32 1
  store ptr @"_ZNSt17_Function_handlerIFvRN6duckdb12CatalogEntryEEZNS0_23CatalogSetSecretStorage10AllSecretsENS0_12optional_ptrINS0_18CatalogTransactionELb1EEEE3$_0E9_M_invokeERKSt9_Any_dataS2_", ptr %13, align 8, !tbaa !801
  %14 = getelementptr inbounds nuw %"class.std::_Function_base", ptr %5, i32 0, i32 1
  store ptr @"_ZNSt17_Function_handlerIFvRN6duckdb12CatalogEntryEEZNS0_23CatalogSetSecretStorage10AllSecretsENS0_12optional_ptrINS0_18CatalogTransactionELb1EEEE3$_0E10_M_managerERSt9_Any_dataRKSA_St18_Manager_operation", ptr %14, align 8, !tbaa !804
  br label %15

15:                                               ; preds = %10, %2
  ret void
}

; Function Attrs: mustprogress nounwind uwtable
define linkonce_odr void @_ZN6duckdb6vectorINS_11SecretEntryELb1EEC2Ev(ptr noundef nonnull align 8 dereferenceable(24) %0) unnamed_addr #6 comdat align 2 {
  %2 = alloca ptr, align 8
  store ptr %0, ptr %2, align 8, !tbaa !455
  %3 = load ptr, ptr %2, align 8
  call void @_ZNSt6vectorIN6duckdb11SecretEntryESaIS1_EEC2Ev(ptr noundef nonnull align 8 dereferenceable(24) %3) #3
  ret void
}

; Function Attrs: mustprogress uwtable
define void @_ZN6duckdb23CatalogSetSecretStorage10AllSecretsENS_12optional_ptrINS_18CatalogTransactionELb1EEE(ptr dead_on_unwind noalias writable sret(%"class.duckdb::vector.660") align 8 %0, ptr noundef nonnull align 8 dereferenceable(72) %1, ptr %2) unnamed_addr #4 align 2 personality ptr @__gxx_personality_v0 {
  %4 = alloca ptr, align 8
  %5 = alloca %"class.duckdb::optional_ptr.594", align 8
  %6 = alloca ptr, align 8
  %7 = alloca i1, align 1
  %8 = alloca %"class.std::function.737", align 8
  %9 = alloca %class.anon.739, align 8
  %10 = alloca ptr, align 8
  %11 = alloca i32, align 4
  %12 = alloca %"struct.duckdb::CatalogTransaction", align 8
  %13 = alloca %"class.duckdb::optional_ptr.594", align 8
  store ptr %0, ptr %4, align 8
  %14 = getelementptr inbounds nuw %"class.duckdb::optional_ptr.594", ptr %5, i32 0, i32 0
  store ptr %2, ptr %14, align 8
  store ptr %1, ptr %6, align 8, !tbaa !772
  %15 = load ptr, ptr %6, align 8
  store i1 false, ptr %7, align 1
  call void @_ZN6duckdb6vectorINS_11SecretEntryELb1EEC2Ev(ptr noundef nonnull align 8 dereferenceable(24) %0) #3
  call void @llvm.lifetime.start.p0(i64 32, ptr %8) #3
  call void @llvm.lifetime.start.p0(i64 8, ptr %9) #3
  %16 = getelementptr inbounds nuw %class.anon.739, ptr %9, i32 0, i32 0
  store ptr %0, ptr %16, align 8, !tbaa !455
  call void @"_ZNSt8functionIFvRN6duckdb12CatalogEntryEEEC2IZNS0_23CatalogSetSecretStorage10AllSecretsENS0_12optional_ptrINS0_18CatalogTransactionELb1EEEE3$_0vEEOT_"(ptr noundef nonnull align 8 dereferenceable(32) %8, ptr noundef nonnull align 8 dereferenceable(8) %9) #3
  call void @llvm.lifetime.end.p0(i64 8, ptr %9) #3
  %17 = getelementptr inbounds nuw %"class.duckdb::CatalogSetSecretStorage", ptr %15, i32 0, i32 1
  %18 = invoke noundef ptr @_ZNK6duckdb10unique_ptrINS_10CatalogSetESt14default_deleteIS1_ELb1EEptEv(ptr noundef nonnull align 8 dereferenceable(8) %17)
          to label %19 unwind label %25

19:                                               ; preds = %3
  call void @llvm.memcpy.p0.p0.i64(ptr align 8 %13, ptr align 8 %5, i64 8, i1 false), !tbaa.struct !774
  %20 = getelementptr inbounds nuw %"class.duckdb::optional_ptr.594", ptr %13, i32 0, i32 0
  %21 = load ptr, ptr %20, align 8
  invoke void @_ZN6duckdb23CatalogSetSecretStorage23GetTransactionOrDefaultENS_12optional_ptrINS_18CatalogTransactionELb1EEE(ptr dead_on_unwind writable sret(%"struct.duckdb::CatalogTransaction") align 8 %12, ptr noundef nonnull align 8 dereferenceable(72) %15, ptr %21)
          to label %22 unwind label %25

22:                                               ; preds = %19
  invoke void @_ZN6duckdb10CatalogSet4ScanENS_18CatalogTransactionERKSt8functionIFvRNS_12CatalogEntryEEE(ptr noundef nonnull align 8 dereferenceable(104) %18, ptr noundef byval(%"struct.duckdb::CatalogTransaction") align 8 %12, ptr noundef nonnull align 8 dereferenceable(32) %8)
          to label %23 unwind label %25

23:                                               ; preds = %22
  store i1 true, ptr %7, align 1
  call void @_ZNSt14_Function_baseD2Ev(ptr noundef nonnull align 8 dereferenceable(32) %8) #3
  call void @llvm.lifetime.end.p0(i64 32, ptr %8) #3
  %24 = load i1, ptr %7, align 1
  br i1 %24, label %30, label %29

25:                                               ; preds = %22, %19, %3
  %26 = landingpad { ptr, i32 }
          cleanup
  %27 = extractvalue { ptr, i32 } %26, 0
  store ptr %27, ptr %10, align 8
  %28 = extractvalue { ptr, i32 } %26, 1
  store i32 %28, ptr %11, align 4
  call void @_ZNSt14_Function_baseD2Ev(ptr noundef nonnull align 8 dereferenceable(32) %8) #3
  call void @llvm.lifetime.end.p0(i64 32, ptr %8) #3
  call void @_ZNSt6vectorIN6duckdb11SecretEntryESaIS1_EED2Ev(ptr noundef nonnull align 8 dereferenceable(24) %0) #3
  br label %31

29:                                               ; preds = %23
  call void @_ZNSt6vectorIN6duckdb11SecretEntryESaIS1_EED2Ev(ptr noundef nonnull align 8 dereferenceable(24) %0) #3
  br label %30

30:                                               ; preds = %29, %23
  ret void

31:                                               ; preds = %25
  %32 = load ptr, ptr %10, align 8
  %33 = load i32, ptr %11, align 4
  %34 = insertvalue { ptr, i32 } poison, ptr %32, 0
  %35 = insertvalue { ptr, i32 } %34, i32 %33, 1
  resume { ptr, i32 } %35
}