; Function Attrs: mustprogress uwtable
define void @_ZN6duckdb23CatalogSetSecretStorage10AllSecretsENS_12optional_ptrINS_18CatalogTransactionELb1EEE(ptr dead_on_unwind noalias writable sret(%"class.duckdb::vector.660") align 8 initializes((0, 24)) %0, ptr noundef nonnull align 8 dereferenceable(72) %1, ptr %2) unnamed_addr #3 align 2 personality ptr @__gxx_personality_v0 {
  %4 = alloca %"class.duckdb::optional_ptr.594", align 8
  %5 = alloca %"class.std::function.737", align 8
  %6 = alloca %"struct.duckdb::CatalogTransaction", align 8
  tail call void @llvm.memset.p0.i64(ptr noundef nonnull align 8 dereferenceable(24) %0, i8 0, i64 24, i1 false)
  call void @llvm.lifetime.start.p0(i64 32, ptr nonnull %5) #33
  %7 = ptrtoint ptr %0 to i64
  %8 = getelementptr inbounds nuw i8, ptr %5, i64 16
  %9 = getelementptr inbounds nuw i8, ptr %5, i64 24
  %10 = getelementptr inbounds nuw i8, ptr %5, i64 8
  store i64 0, ptr %10, align 8
  store i64 %7, ptr %5, align 8, !tbaa !737
  store ptr @"_ZNSt17_Function_handlerIFvRN6duckdb12CatalogEntryEEZNS0_23CatalogSetSecretStorage10AllSecretsENS0_12optional_ptrINS0_18CatalogTransactionELb1EEEE3$_0E9_M_invokeERKSt9_Any_dataS2_", ptr %9, align 8, !tbaa !739
  store ptr @"_ZNSt17_Function_handlerIFvRN6duckdb12CatalogEntryEEZNS0_23CatalogSetSecretStorage10AllSecretsENS0_12optional_ptrINS0_18CatalogTransactionELb1EEEE3$_0E10_M_managerERSt9_Any_dataRKSA_St18_Manager_operation", ptr %8, align 8, !tbaa !742
  %11 = getelementptr inbounds nuw i8, ptr %1, i64 56
  %12 = invoke noundef ptr @_ZNK6duckdb10unique_ptrINS_10CatalogSetESt14default_deleteIS1_ELb1EEptEv(ptr noundef nonnull align 8 dereferenceable(8) %11)
          to label %13 unwind label %27

13:                                               ; preds = %3
  call void @llvm.lifetime.start.p0(i64 8, ptr nonnull %4)
  store ptr %2, ptr %4, align 8, !noalias !743
  %.not.i = icmp eq ptr %2, null
  br i1 %.not.i, label %16, label %14

14:                                               ; preds = %13
  invoke void @_ZNK6duckdb12optional_ptrINS_18CatalogTransactionELb1EE10CheckValidEv(ptr noundef nonnull align 8 dereferenceable(8) %4)
          to label %.noexc unwind label %27

.noexc:                                           ; preds = %14
  %15 = load ptr, ptr %4, align 8, !tbaa !702, !noalias !743
  call void @llvm.memcpy.p0.p0.i64(ptr noundef nonnull align 8 dereferenceable(40) %6, ptr noundef nonnull align 8 dereferenceable(40) %15, i64 40, i1 false), !tbaa.struct !135
  br label %19

16:                                               ; preds = %13
  %17 = getelementptr inbounds nuw i8, ptr %1, i64 64
  %18 = load ptr, ptr %17, align 8, !tbaa !705, !noalias !743
  invoke void @_ZN6duckdb18CatalogTransaction20GetSystemTransactionERNS_16DatabaseInstanceE(ptr dead_on_unwind nonnull writable sret(%"struct.duckdb::CatalogTransaction") align 8 %6, ptr noundef nonnull align 8 dereferenceable(1912) %18)
          to label %19 unwind label %27

19:                                               ; preds = %.noexc, %16
  call void @llvm.lifetime.end.p0(i64 8, ptr nonnull %4)
  invoke void @_ZN6duckdb10CatalogSet4ScanENS_18CatalogTransactionERKSt8functionIFvRNS_12CatalogEntryEEE(ptr noundef nonnull align 8 dereferenceable(104) %12, ptr noundef nonnull byval(%"struct.duckdb::CatalogTransaction") align 8 %6, ptr noundef nonnull align 8 dereferenceable(32) %5)
          to label %20 unwind label %27

20:                                               ; preds = %19
  %21 = load ptr, ptr %8, align 8, !tbaa !742
  %.not.i5 = icmp eq ptr %21, null
  br i1 %.not.i5, label %_ZNSt14_Function_baseD2Ev.exit, label %22

22:                                               ; preds = %20
  %23 = invoke noundef zeroext i1 %21(ptr noundef nonnull align 8 dereferenceable(32) %5, ptr noundef nonnull align 8 dereferenceable(32) %5, i32 noundef 3)
          to label %_ZNSt14_Function_baseD2Ev.exit unwind label %24

24:                                               ; preds = %22
  %25 = landingpad { ptr, i32 }
          catch ptr null
  %26 = extractvalue { ptr, i32 } %25, 0
  call void @__clang_call_terminate(ptr %26) #38
  unreachable

_ZNSt14_Function_baseD2Ev.exit:                   ; preds = %20, %22
  call void @llvm.lifetime.end.p0(i64 32, ptr nonnull %5) #33
  ret void

27:                                               ; preds = %16, %14, %19, %3
  %28 = landingpad { ptr, i32 }
          cleanup
  %29 = load ptr, ptr %8, align 8, !tbaa !742
  %.not.i6 = icmp eq ptr %29, null
  br i1 %.not.i6, label %_ZNSt14_Function_baseD2Ev.exit7, label %30

30:                                               ; preds = %27
  %31 = invoke noundef zeroext i1 %29(ptr noundef nonnull align 8 dereferenceable(32) %5, ptr noundef nonnull align 8 dereferenceable(32) %5, i32 noundef 3)
          to label %_ZNSt14_Function_baseD2Ev.exit7 unwind label %32

32:                                               ; preds = %30
  %33 = landingpad { ptr, i32 }
          catch ptr null
  %34 = extractvalue { ptr, i32 } %33, 0
  call void @__clang_call_terminate(ptr %34) #38
  unreachable

_ZNSt14_Function_baseD2Ev.exit7:                  ; preds = %27, %30
  call void @llvm.lifetime.end.p0(i64 32, ptr nonnull %5) #33
  call void @_ZNSt6vectorIN6duckdb11SecretEntryESaIS1_EED2Ev(ptr noundef nonnull align 8 dereferenceable(24) %0) #33
  resume { ptr, i32 } %28
}